; Function Attrs: mustprogress uwtable
define void @_ZN2cv4gapi9sepFilterERKNS_4GMatEiRKNS_3MatES6_RKNS_6Point_IiEERKNS_7Scalar_IdEEiSE_(ptr dead_on_unwind noalias writable sret(%"class.cv::GMat") align 8 %0, ptr nocapture noundef nonnull readonly align 8 dereferenceable(16) %1, i32 noundef %2, ptr noundef nonnull align 8 dereferenceable(96) %3, ptr noundef nonnull align 8 dereferenceable(96) %4, ptr nocapture noundef nonnull readonly align 4 dereferenceable(8) %5, ptr nocapture noundef nonnull readonly align 8 dereferenceable(32) %6, i32 noundef %7, ptr nocapture noundef nonnull readonly align 8 dereferenceable(32) %8) local_unnamed_addr #3 personality ptr @__gxx_personality_v0 {
  %10 = alloca %"class.cv::GMat", align 8
  %11 = alloca %"class.cv::Mat", align 8
  %12 = alloca %"class.cv::Mat", align 8
  %13 = alloca %"class.cv::Scalar_", align 8
  %14 = alloca %"class.cv::Scalar_", align 8
  %15 = load ptr, ptr %1, align 8
  store ptr %15, ptr %10, align 8
  %16 = getelementptr inbounds i8, ptr %10, i64 8
  %17 = getelementptr inbounds i8, ptr %1, i64 8
  %18 = load ptr, ptr %17, align 8
  store ptr %18, ptr %16, align 8
  %.not.i.i.i.i = icmp eq ptr %18, null
  br i1 %.not.i.i.i.i, label %_ZN2cv4GMatC2ERKS0_.exit, label %19

19:                                               ; preds = %9
  %20 = getelementptr inbounds i8, ptr %18, i64 8
  %21 = load i8, ptr @__libc_single_threaded, align 1
  %.not.i.i.i.i.i = icmp eq i8 %21, 0
  br i1 %.not.i.i.i.i.i, label %25, label %22

22:                                               ; preds = %19
  %23 = load i32, ptr %20, align 4
  %24 = add nsw i32 %23, 1
  store i32 %24, ptr %20, align 4
  br label %_ZN2cv4GMatC2ERKS0_.exit

25:                                               ; preds = %19
  %26 = atomicrmw volatile add ptr %20, i32 1 acq_rel, align 4
  br label %_ZN2cv4GMatC2ERKS0_.exit

_ZN2cv4GMatC2ERKS0_.exit:                         ; preds = %9, %22, %25
  invoke void @_ZN2cv3MatC1ERKS0_(ptr noundef nonnull align 8 dereferenceable(96) %11, ptr noundef nonnull align 8 dereferenceable(96) %3)
          to label %27 unwind label %64

27:                                               ; preds = %_ZN2cv4GMatC2ERKS0_.exit
  invoke void @_ZN2cv3MatC1ERKS0_(ptr noundef nonnull align 8 dereferenceable(96) %12, ptr noundef nonnull align 8 dereferenceable(96) %4)
          to label %_ZN2cv7Scalar_IdEC2ERKS1_.exit.preheader unwind label %66

_ZN2cv7Scalar_IdEC2ERKS1_.exit.preheader:         ; preds = %27
  %.sroa.0.0.copyload = load i64, ptr %5, align 4
  call void @llvm.memcpy.p0.p0.i64(ptr noundef nonnull align 8 dereferenceable(32) %13, ptr noundef nonnull align 8 dereferenceable(32) %6, i64 32, i1 false)
  call void @llvm.memcpy.p0.p0.i64(ptr noundef nonnull align 8 dereferenceable(32) %14, ptr noundef nonnull align 8 dereferenceable(32) %8, i64 32, i1 false)
  invoke void @_ZN2cv11GKernelTypeINS_4gapi7imgproc10GSepFilterESt8functionIFNS_4GMatES5_iNS_3MatES6_NS_6Point_IiEENS_7Scalar_IdEEiSA_EEE2onES5_iS6_S6_S8_SA_iSA_(ptr dead_on_unwind writable sret(%"class.cv::GMat") align 8 %0, ptr noundef nonnull %10, i32 noundef %2, ptr noundef nonnull %11, ptr noundef nonnull %12, i64 %.sroa.0.0.copyload, ptr noundef nonnull %13, i32 noundef %7, ptr noundef nonnull %14)
          to label %28 unwind label %68

28:                                               ; preds = %_ZN2cv7Scalar_IdEC2ERKS1_.exit.preheader
  call void @_ZN2cv3MatD1Ev(ptr noundef nonnull align 8 dereferenceable(96) %12) #18
  call void @_ZN2cv3MatD1Ev(ptr noundef nonnull align 8 dereferenceable(96) %11) #18
  %29 = load ptr, ptr %16, align 8
  %.not.i.i.i.i17 = icmp eq ptr %29, null
  br i1 %.not.i.i.i.i17, label %_ZN2cv4GMatD2Ev.exit, label %30

30:                                               ; preds = %28
  %31 = getelementptr inbounds i8, ptr %29, i64 8
  %32 = load atomic i64, ptr %31 acquire, align 8
  %33 = icmp eq i64 %32, 4294967297
  %34 = trunc i64 %32 to i32
  br i1 %33, label %35, label %40

35:                                               ; preds = %30
  store i32 0, ptr %31, align 8
  %36 = getelementptr inbounds i8, ptr %29, i64 12
  store i32 0, ptr %36, align 4
  %37 = load ptr, ptr %29, align 8
  %38 = getelementptr inbounds i8, ptr %37, i64 16
  %39 = load ptr, ptr %38, align 8
  call void %39(ptr noundef nonnull align 8 dereferenceable(16) %29) #18
  br label %_ZNSt16_Sp_counted_baseILN9__gnu_cxx12_Lock_policyE2EE24_M_release_last_use_coldEv.exit.sink.split.i.i.i.i.i

40:                                               ; preds = %30
  %41 = load i8, ptr @__libc_single_threaded, align 1
  %.not.i.i.i.i.i18 = icmp eq i8 %41, 0
  br i1 %.not.i.i.i.i.i18, label %44, label %42

42:                                               ; preds = %40
  %43 = add nsw i32 %34, -1
  store i32 %43, ptr %31, align 4
  br label %46

44:                                               ; preds = %40
  %45 = atomicrmw volatile add ptr %31, i32 -1 acq_rel, align 4
  br label %46

46:                                               ; preds = %44, %42
  %.0.i.i.i.i.i = phi i32 [ %34, %42 ], [ %45, %44 ]
  %47 = icmp eq i32 %.0.i.i.i.i.i, 1
  br i1 %47, label %48, label %_ZN2cv4GMatD2Ev.exit

48:                                               ; preds = %46
  %49 = load ptr, ptr %29, align 8
  %50 = getelementptr inbounds i8, ptr %49, i64 16
  %51 = load ptr, ptr %50, align 8
  call void %51(ptr noundef nonnull align 8 dereferenceable(16) %29) #18
  %52 = getelementptr inbounds i8, ptr %29, i64 12
  %53 = load i8, ptr @__libc_single_threaded, align 1
  %.not.i.i.i.i.i.i.i = icmp eq i8 %53, 0
  br i1 %.not.i.i.i.i.i.i.i, label %57, label %54

54:                                               ; preds = %48
  %55 = load i32, ptr %52, align 4
  %56 = add nsw i32 %55, -1
  store i32 %56, ptr %52, align 4
  br label %59

57:                                               ; preds = %48
  %58 = atomicrmw volatile add ptr %52, i32 -1 acq_rel, align 4
  br label %59

59:                                               ; preds = %57, %54
  %.0.i.i.i.i.i.i.i = phi i32 [ %55, %54 ], [ %58, %57 ]
  %60 = icmp eq i32 %.0.i.i.i.i.i.i.i, 1
  br i1 %60, label %_ZNSt16_Sp_counted_baseILN9__gnu_cxx12_Lock_policyE2EE24_M_release_last_use_coldEv.exit.sink.split.i.i.i.i.i, label %_ZN2cv4GMatD2Ev.exit

_ZNSt16_Sp_counted_baseILN9__gnu_cxx12_Lock_policyE2EE24_M_release_last_use_coldEv.exit.sink.split.i.i.i.i.i: ; preds = %59, %35
  %61 = load ptr, ptr %29, align 8
  %62 = getelementptr inbounds i8, ptr %61, i64 24
  %63 = load ptr, ptr %62, align 8
  call void %63(ptr noundef nonnull align 8 dereferenceable(16) %29) #18
  br label %_ZN2cv4GMatD2Ev.exit

_ZN2cv4GMatD2Ev.exit:                             ; preds = %28, %46, %59, %_ZNSt16_Sp_counted_baseILN9__gnu_cxx12_Lock_policyE2EE24_M_release_last_use_coldEv.exit.sink.split.i.i.i.i.i
  ret void

64:                                               ; preds = %_ZN2cv4GMatC2ERKS0_.exit
  %65 = landingpad { ptr, i32 }
          cleanup
  br label %71

66:                                               ; preds = %27
  %67 = landingpad { ptr, i32 }
          cleanup
  br label %70

68:                                               ; preds = %_ZN2cv7Scalar_IdEC2ERKS1_.exit.preheader
  %69 = landingpad { ptr, i32 }
          cleanup
  call void @_ZN2cv3MatD1Ev(ptr noundef nonnull align 8 dereferenceable(96) %12) #18
  br label %70

70:                                               ; preds = %68, %66
  %.pn = phi { ptr, i32 } [ %69, %68 ], [ %67, %66 ]
  call void @_ZN2cv3MatD1Ev(ptr noundef nonnull align 8 dereferenceable(96) %11) #18
  br label %71

71:                                               ; preds = %70, %64
  %.pn.pn = phi { ptr, i32 } [ %.pn, %70 ], [ %65, %64 ]
  call void @_ZN2cv4GMatD2Ev(ptr noundef nonnull align 8 dereferenceable(16) %10) #18
  resume { ptr, i32 } %.pn.pn
}